target datalayout = "e-m:e-p270:32:32-p271:32:32-p272:64:64-i64:64-i128:128-f80:128-n8:16:32:64-S128"
target triple = "x86_64-pc-linux-gnu"

; Function Attrs: nounwind ssp uwtable
define dso_local i32 @crypto_pwhash_argon2i_str_verify(ptr noundef nonnull %0, ptr noundef nonnull %1, i64 noundef %2) #0 {
  %4 = alloca i32, align 4
  %5 = alloca ptr, align 8
  %6 = alloca ptr, align 8
  %7 = alloca i64, align 8
  %8 = alloca i32, align 4
  %9 = alloca i32, align 4
  store ptr %0, ptr %5, align 8
  store ptr %1, ptr %6, align 8
  store i64 %2, ptr %7, align 8
  call void @llvm.lifetime.start.p0(i64 4, ptr %8) #9
  %10 = load i64, ptr %7, align 8
  %11 = icmp ugt i64 %10, 4294967295
  br i1 %11, label %12, label %14

12:                                               ; preds = %3
  %13 = call ptr @__errno_location() #10
  store i32 27, ptr %13, align 4
  store i32 -1, ptr %4, align 4
  store i32 1, ptr %9, align 4
  br label %33

14:                                               ; preds = %3
  %15 = load i64, ptr %7, align 8
  %16 = icmp ult i64 %15, 0
  br i1 %16, label %17, label %19

17:                                               ; preds = %14
  %18 = call ptr @__errno_location() #10
  store i32 22, ptr %18, align 4
  store i32 -1, ptr %4, align 4
  store i32 1, ptr %9, align 4
  br label %33

19:                                               ; preds = %14
  %20 = load ptr, ptr %5, align 8
  %21 = load ptr, ptr %6, align 8
  %22 = load i64, ptr %7, align 8
  %23 = call i32 @_sodium_argon2i_verify(ptr noundef %20, ptr noundef %21, i64 noundef %22)
  store i32 %23, ptr %8, align 4
  %24 = load i32, ptr %8, align 4
  %25 = icmp eq i32 %24, 0
  br i1 %25, label %26, label %27

26:                                               ; preds = %19
  store i32 0, ptr %4, align 4
  store i32 1, ptr %9, align 4
  br label %33

27:                                               ; preds = %19
  %28 = load i32, ptr %8, align 4
  %29 = icmp eq i32 %28, -35
  br i1 %29, label %30, label %32

30:                                               ; preds = %27
  %31 = call ptr @__errno_location() #10
  store i32 22, ptr %31, align 4
  br label %32

32:                                               ; preds = %30, %27
  store i32 -1, ptr %4, align 4
  store i32 1, ptr %9, align 4
  br label %33

33:                                               ; preds = %32, %26, %17, %12
  call void @llvm.lifetime.end.p0(i64 4, ptr %8) #9
  %34 = load i32, ptr %4, align 4
  ret i32 %34
}