; Function Attrs: nounwind ssp uwtable
define dso_local range(i32 -1, 1) i32 @crypto_pwhash_argon2i_str_verify(ptr noundef nonnull %0, ptr noundef nonnull %1, i64 noundef %2) local_unnamed_addr #1 {
  %4 = icmp ugt i64 %2, 4294967295
  br i1 %4, label %5, label %7

5:                                                ; preds = %3
  %6 = tail call ptr @__errno_location() #10
  store i32 27, ptr %6, align 4
  br label %12

7:                                                ; preds = %3
  %8 = tail call i32 @_sodium_argon2i_verify(ptr noundef nonnull %0, ptr noundef nonnull %1, i64 noundef %2) #9
  switch i32 %8, label %11 [
    i32 0, label %12
    i32 -35, label %9
  ]

9:                                                ; preds = %7
  %10 = tail call ptr @__errno_location() #10
  store i32 22, ptr %10, align 4
  br label %11

11:                                               ; preds = %7, %9
  br label %12

12:                                               ; preds = %7, %11, %5
  %.0 = phi i32 [ -1, %5 ], [ -1, %11 ], [ %8, %7 ]
  ret i32 %.0
}